; Function Attrs: mustprogress nofree norecurse nosync nounwind willreturn memory(read, inaccessiblemem: none) uwtable
define hidden noundef zeroext i1 @_ZN3sat14anf_simplifier16is_pre_satisfiedERKNS_6clauseE(ptr nocapture noundef nonnull readonly align 8 dereferenceable(96) %this, ptr noundef nonnull readonly align 4 dereferenceable(20) %c) local_unnamed_addr #9 align 2 {
entry:
  %m_size.i = getelementptr inbounds i8, ptr %c, i64 4
  %0 = load i32, ptr %m_size.i, align 4
  %idx.ext.i = zext i32 %0 to i64
  %add.ptr.i.idx = shl nuw nsw i64 %idx.ext.i, 2
  %1 = getelementptr i8, ptr %c, i64 %add.ptr.i.idx
  %add.ptr.i.ptr = getelementptr i8, ptr %1, i64 20
  %cmp.not5.not = icmp eq i32 %0, 0
  br i1 %cmp.not5.not, label %return, label %for.body.lr.ph

for.body.lr.ph:                                   ; preds = %entry
  %m_lits.i.ptr = getelementptr inbounds i8, ptr %c, i64 20
  %2 = load ptr, ptr %this, align 8
  %m_best_phase_size.i = getelementptr inbounds i8, ptr %2, i64 3652
  %3 = load i32, ptr %m_best_phase_size.i, align 4
  %cmp.not.i = icmp eq i32 %3, 0
  %..i = select i1 %cmp.not.i, i64 3600, i64 3608
  %m_phase.i = getelementptr inbounds i8, ptr %2, i64 %..i
  %4 = load ptr, ptr %m_phase.i, align 8
  br label %for.body

for.body:                                         ; preds = %for.body, %for.body.lr.ph
  %__begin1.06 = phi ptr [ %m_lits.i.ptr, %for.body.lr.ph ], [ %incdec.ptr, %for.body ]
  %l.sroa.0.0.copyload = load i32, ptr %__begin1.06, align 4
  %shr.i2.i = lshr i32 %l.sroa.0.0.copyload, 1
  %idxprom.i3.i = zext nneg i32 %shr.i2.i to i64
  %arrayidx.i4.i = getelementptr inbounds i8, ptr %4, i64 %idxprom.i3.i
  %cond.in.in.i = load i8, ptr %arrayidx.i4.i, align 1
  %cond.in.i = and i8 %cond.in.in.i, 1
  %cond.i = icmp ne i8 %cond.in.i, 0
  %5 = and i32 %l.sroa.0.0.copyload, 1
  %6 = icmp ne i32 %5, 0
  %spec.select.i = xor i1 %6, %cond.i
  %incdec.ptr = getelementptr inbounds i8, ptr %__begin1.06, i64 4
  %cmp.not.not = icmp eq ptr %incdec.ptr, %add.ptr.i.ptr
  %or.cond = select i1 %spec.select.i, i1 true, i1 %cmp.not.not
  br i1 %or.cond, label %return, label %for.body

return:                                           ; preds = %for.body, %entry
  %cmp.not.lcssa = phi i1 [ false, %entry ], [ %spec.select.i, %for.body ]
  ret i1 %cmp.not.lcssa
}